target datalayout = "e-m:e-p270:32:32-p271:32:32-p272:64:64-i64:64-i128:128-f80:128-n8:16:32:64-S128"
target triple = "x86_64-unknown-linux-gnu"

%"class.QuantLib::Commodity" = type { %"class.QuantLib::Instrument.base", %"class.boost::shared_ptr.6", %"class.std::vector", %"class.std::map.16", %"class.QuantLib::Observable", %"class.QuantLib::Observer" }
%"class.QuantLib::Instrument.base" = type { %"class.QuantLib::LazyObject.base", double, double, %"class.QuantLib::Date", %"class.std::map", %"class.boost::shared_ptr.12" }
%"class.QuantLib::LazyObject.base" = type <{ ptr, i8, i8, i8, i8 }>
%"class.QuantLib::Date" = type { i64 }
%"class.std::map" = type { %"class.std::_Rb_tree.7" }
%"class.std::_Rb_tree.7" = type { %"struct.std::_Rb_tree<std::__cxx11::basic_string<char>, std::pair<const std::__cxx11::basic_string<char>, boost::any>, std::_Select1st<std::pair<const std::__cxx11::basic_string<char>, boost::any>>, std::less<std::__cxx11::basic_string<char>>>::_Rb_tree_impl" }
%"struct.std::_Rb_tree<std::__cxx11::basic_string<char>, std::pair<const std::__cxx11::basic_string<char>, boost::any>, std::_Select1st<std::pair<const std::__cxx11::basic_string<char>, boost::any>>, std::less<std::__cxx11::basic_string<char>>>::_Rb_tree_impl" = type { [8 x i8], %"struct.std::_Rb_tree_header" }
%"struct.std::_Rb_tree_header" = type { %"struct.std::_Rb_tree_node_base", i64 }
%"struct.std::_Rb_tree_node_base" = type { i32, ptr, ptr, ptr }
%"class.boost::shared_ptr.12" = type { ptr, %"class.boost::detail::shared_count" }
%"class.boost::detail::shared_count" = type { ptr }
%"class.boost::shared_ptr.6" = type { ptr, %"class.boost::detail::shared_count" }
%"class.std::vector" = type { %"struct.std::_Vector_base" }
%"struct.std::_Vector_base" = type { %"struct.std::_Vector_base<QuantLib::PricingError, std::allocator<QuantLib::PricingError>>::_Vector_impl" }
%"struct.std::_Vector_base<QuantLib::PricingError, std::allocator<QuantLib::PricingError>>::_Vector_impl" = type { %"struct.std::_Vector_base<QuantLib::PricingError, std::allocator<QuantLib::PricingError>>::_Vector_impl_data" }
%"struct.std::_Vector_base<QuantLib::PricingError, std::allocator<QuantLib::PricingError>>::_Vector_impl_data" = type { ptr, ptr, ptr }
%"class.std::map.16" = type { %"class.std::_Rb_tree.17" }
%"class.std::_Rb_tree.17" = type { %"struct.std::_Rb_tree<std::__cxx11::basic_string<char>, std::pair<const std::__cxx11::basic_string<char>, QuantLib::Money>, std::_Select1st<std::pair<const std::__cxx11::basic_string<char>, QuantLib::Money>>, std::less<std::__cxx11::basic_string<char>>>::_Rb_tree_impl" }
%"struct.std::_Rb_tree<std::__cxx11::basic_string<char>, std::pair<const std::__cxx11::basic_string<char>, QuantLib::Money>, std::_Select1st<std::pair<const std::__cxx11::basic_string<char>, QuantLib::Money>>, std::less<std::__cxx11::basic_string<char>>>::_Rb_tree_impl" = type { [8 x i8], %"struct.std::_Rb_tree_header" }
%"class.QuantLib::Observable" = type { ptr, %"class.std::set.0" }
%"class.std::set.0" = type { %"class.std::_Rb_tree.1" }
%"class.std::_Rb_tree.1" = type { %"struct.std::_Rb_tree<QuantLib::Observer *, QuantLib::Observer *, std::_Identity<QuantLib::Observer *>, std::less<QuantLib::Observer *>>::_Rb_tree_impl" }
%"struct.std::_Rb_tree<QuantLib::Observer *, QuantLib::Observer *, std::_Identity<QuantLib::Observer *>, std::less<QuantLib::Observer *>>::_Rb_tree_impl" = type { [8 x i8], %"struct.std::_Rb_tree_header" }
%"class.QuantLib::Observer" = type { ptr, %"class.std::set" }
%"class.std::set" = type { %"class.std::_Rb_tree" }
%"class.std::_Rb_tree" = type { %"struct.std::_Rb_tree<boost::shared_ptr<QuantLib::Observable>, boost::shared_ptr<QuantLib::Observable>, std::_Identity<boost::shared_ptr<QuantLib::Observable>>, std::less<boost::shared_ptr<QuantLib::Observable>>>::_Rb_tree_impl" }
%"struct.std::_Rb_tree<boost::shared_ptr<QuantLib::Observable>, boost::shared_ptr<QuantLib::Observable>, std::_Identity<boost::shared_ptr<QuantLib::Observable>>, std::less<boost::shared_ptr<QuantLib::Observable>>>::_Rb_tree_impl" = type { [8 x i8], %"struct.std::_Rb_tree_header" }
%"class.__gnu_cxx::__normal_iterator.41" = type { ptr }
%"struct.QuantLib::PricingError" = type { i32, %"class.std::__cxx11::basic_string", %"class.std::__cxx11::basic_string", %"class.std::__cxx11::basic_string" }
%"class.std::__cxx11::basic_string" = type { %"struct.std::__cxx11::basic_string<char>::_Alloc_hider", i64, %union.anon }
%"struct.std::__cxx11::basic_string<char>::_Alloc_hider" = type { ptr }
%union.anon = type { i64, [8 x i8] }

; Function Attrs: mustprogress nounwind uwtable
define linkonce_odr noundef nonnull align 8 dereferenceable(104) ptr @_ZNK9__gnu_cxx17__normal_iteratorIPN8QuantLib12PricingErrorESt6vectorIS2_SaIS2_EEEdeEv(ptr noundef nonnull align 8 dereferenceable(8) %this) #4 comdat align 2 {
entry:
  %this.addr = alloca ptr, align 8
  store ptr %this, ptr %this.addr, align 8, !tbaa !3
  %this1 = load ptr, ptr %this.addr, align 8
  %_M_current = getelementptr inbounds nuw %"class.__gnu_cxx::__normal_iterator.41", ptr %this1, i32 0, i32 0
  %0 = load ptr, ptr %_M_current, align 8, !tbaa !94
  ret ptr %0
}

; Function Attrs: mustprogress nounwind uwtable
define linkonce_odr ptr @_ZNK9__gnu_cxx17__normal_iteratorIPN8QuantLib12PricingErrorESt6vectorIS2_SaIS2_EEEmiEl(ptr noundef nonnull align 8 dereferenceable(8) %this, i64 noundef %__n) #4 comdat align 2 {
entry:
  %retval = alloca %"class.__gnu_cxx::__normal_iterator.41", align 8
  %this.addr = alloca ptr, align 8
  %__n.addr = alloca i64, align 8
  %ref.tmp = alloca ptr, align 8
  store ptr %this, ptr %this.addr, align 8, !tbaa !3
  store i64 %__n, ptr %__n.addr, align 8, !tbaa !75
  %this1 = load ptr, ptr %this.addr, align 8
  call void @llvm.lifetime.start.p0(i64 8, ptr %ref.tmp) #15
  %_M_current = getelementptr inbounds nuw %"class.__gnu_cxx::__normal_iterator.41", ptr %this1, i32 0, i32 0
  %0 = load ptr, ptr %_M_current, align 8, !tbaa !94
  %1 = load i64, ptr %__n.addr, align 8, !tbaa !75
  %idx.neg = sub i64 0, %1
  %add.ptr = getelementptr inbounds %"struct.QuantLib::PricingError", ptr %0, i64 %idx.neg
  store ptr %add.ptr, ptr %ref.tmp, align 8, !tbaa !3
  call void @_ZN9__gnu_cxx17__normal_iteratorIPN8QuantLib12PricingErrorESt6vectorIS2_SaIS2_EEEC2ERKS3_(ptr noundef nonnull align 8 dereferenceable(8) %retval, ptr noundef nonnull align 8 dereferenceable(8) %ref.tmp) #15
  call void @llvm.lifetime.end.p0(i64 8, ptr %ref.tmp) #15
  %coerce.dive = getelementptr inbounds nuw %"class.__gnu_cxx::__normal_iterator.41", ptr %retval, i32 0, i32 0
  %2 = load ptr, ptr %coerce.dive, align 8
  ret ptr %2
}

; Function Attrs: mustprogress nounwind uwtable
define linkonce_odr void @_ZN9__gnu_cxx17__normal_iteratorIPN8QuantLib12PricingErrorESt6vectorIS2_SaIS2_EEEC2ERKS3_(ptr noundef nonnull align 8 dereferenceable(8) %this, ptr noundef nonnull align 8 dereferenceable(8) %__i) unnamed_addr #4 comdat align 2 {
entry:
  %this.addr = alloca ptr, align 8
  %__i.addr = alloca ptr, align 8
  store ptr %this, ptr %this.addr, align 8, !tbaa !3
  store ptr %__i, ptr %__i.addr, align 8, !tbaa !3
  %this1 = load ptr, ptr %this.addr, align 8
  %_M_current = getelementptr inbounds nuw %"class.__gnu_cxx::__normal_iterator.41", ptr %this1, i32 0, i32 0
  %0 = load ptr, ptr %__i.addr, align 8, !tbaa !3
  %1 = load ptr, ptr %0, align 8, !tbaa !3
  store ptr %1, ptr %_M_current, align 8, !tbaa !94
  ret void
}

; Function Attrs: mustprogress nounwind uwtable
define linkonce_odr noundef nonnull align 8 dereferenceable(104) ptr @_ZNSt6vectorIN8QuantLib12PricingErrorESaIS1_EE4backEv(ptr noundef nonnull align 8 dereferenceable(24) %this) #4 comdat align 2 {
entry:
  %this.addr = alloca ptr, align 8
  %ref.tmp = alloca %"class.__gnu_cxx::__normal_iterator.41", align 8
  %ref.tmp2 = alloca %"class.__gnu_cxx::__normal_iterator.41", align 8
  store ptr %this, ptr %this.addr, align 8, !tbaa !3
  %this1 = load ptr, ptr %this.addr, align 8
  call void @llvm.lifetime.start.p0(i64 8, ptr %ref.tmp) #15
  call void @llvm.lifetime.start.p0(i64 8, ptr %ref.tmp2) #15
  %call = call ptr @_ZNSt6vectorIN8QuantLib12PricingErrorESaIS1_EE3endEv(ptr noundef nonnull align 8 dereferenceable(24) %this1) #15
  %coerce.dive = getelementptr inbounds nuw %"class.__gnu_cxx::__normal_iterator.41", ptr %ref.tmp2, i32 0, i32 0
  store ptr %call, ptr %coerce.dive, align 8
  %call3 = call ptr @_ZNK9__gnu_cxx17__normal_iteratorIPN8QuantLib12PricingErrorESt6vectorIS2_SaIS2_EEEmiEl(ptr noundef nonnull align 8 dereferenceable(8) %ref.tmp2, i64 noundef 1) #15
  %coerce.dive4 = getelementptr inbounds nuw %"class.__gnu_cxx::__normal_iterator.41", ptr %ref.tmp, i32 0, i32 0
  store ptr %call3, ptr %coerce.dive4, align 8
  %call5 = call noundef nonnull align 8 dereferenceable(104) ptr @_ZNK9__gnu_cxx17__normal_iteratorIPN8QuantLib12PricingErrorESt6vectorIS2_SaIS2_EEEdeEv(ptr noundef nonnull align 8 dereferenceable(8) %ref.tmp) #15
  call void @llvm.lifetime.end.p0(i64 8, ptr %ref.tmp2) #15
  call void @llvm.lifetime.end.p0(i64 8, ptr %ref.tmp) #15
  ret ptr %call5
}

; Function Attrs: mustprogress nounwind uwtable
define linkonce_odr ptr @_ZNSt6vectorIN8QuantLib12PricingErrorESaIS1_EE3endEv(ptr noundef nonnull align 8 dereferenceable(24) %this) #4 comdat align 2 {
entry:
  %retval = alloca %"class.__gnu_cxx::__normal_iterator.41", align 8
  %this.addr = alloca ptr, align 8
  store ptr %this, ptr %this.addr, align 8, !tbaa !3
  %this1 = load ptr, ptr %this.addr, align 8
  %_M_impl = getelementptr inbounds nuw %"struct.std::_Vector_base", ptr %this1, i32 0, i32 0
  %_M_finish = getelementptr inbounds nuw %"struct.std::_Vector_base<QuantLib::PricingError, std::allocator<QuantLib::PricingError>>::_Vector_impl_data", ptr %_M_impl, i32 0, i32 1
  call void @_ZN9__gnu_cxx17__normal_iteratorIPN8QuantLib12PricingErrorESt6vectorIS2_SaIS2_EEEC2ERKS3_(ptr noundef nonnull align 8 dereferenceable(8) %retval, ptr noundef nonnull align 8 dereferenceable(8) %_M_finish) #15
  %coerce.dive = getelementptr inbounds nuw %"class.__gnu_cxx::__normal_iterator.41", ptr %retval, i32 0, i32 0
  %0 = load ptr, ptr %coerce.dive, align 8
  ret ptr %0
}

; Function Attrs: mustprogress uwtable
define linkonce_odr void @_ZNSt16allocator_traitsISaIN8QuantLib12PricingErrorEEE9constructIS1_JRNS1_5LevelERKNSt7__cxx1112basic_stringIcSt11char_traitsIcESaIcEEESE_EEEvRS2_PT_DpOT0_(ptr noundef nonnull align 1 dereferenceable(1) %__a, ptr noundef %__p, ptr noundef nonnull align 4 dereferenceable(4) %__args, ptr noundef nonnull align 8 dereferenceable(32) %__args1, ptr noundef nonnull align 8 dereferenceable(32) %__args3) #2 comdat align 2 {
entry:
  %__a.addr = alloca ptr, align 8
  %__p.addr = alloca ptr, align 8
  %__args.addr = alloca ptr, align 8
  %__args.addr2 = alloca ptr, align 8
  %__args.addr4 = alloca ptr, align 8
  store ptr %__a, ptr %__a.addr, align 8, !tbaa !3
  store ptr %__p, ptr %__p.addr, align 8, !tbaa !3
  store ptr %__args, ptr %__args.addr, align 8, !tbaa !3
  store ptr %__args1, ptr %__args.addr2, align 8, !tbaa !3
  store ptr %__args3, ptr %__args.addr4, align 8, !tbaa !3
  %0 = load ptr, ptr %__a.addr, align 8, !tbaa !3
  %1 = load ptr, ptr %__p.addr, align 8, !tbaa !3
  %2 = load ptr, ptr %__args.addr, align 8, !tbaa !3
  %3 = load ptr, ptr %__args.addr2, align 8, !tbaa !3
  %4 = load ptr, ptr %__args.addr4, align 8, !tbaa !3
  call void @_ZNSt15__new_allocatorIN8QuantLib12PricingErrorEE9constructIS1_JRNS1_5LevelERKNSt7__cxx1112basic_stringIcSt11char_traitsIcESaIcEEESD_EEEvPT_DpOT0_(ptr noundef nonnull align 1 dereferenceable(1) %0, ptr noundef %1, ptr noundef nonnull align 4 dereferenceable(4) %2, ptr noundef nonnull align 8 dereferenceable(32) %3, ptr noundef nonnull align 8 dereferenceable(32) %4)
  ret void
}

; Function Attrs: mustprogress uwtable
define linkonce_odr noundef nonnull align 8 dereferenceable(104) ptr @_ZNSt6vectorIN8QuantLib12PricingErrorESaIS1_EE12emplace_backIJRNS1_5LevelERKNSt7__cxx1112basic_stringIcSt11char_traitsIcESaIcEEESE_EEERS1_DpOT_(ptr noundef nonnull align 8 dereferenceable(24) %this, ptr noundef nonnull align 4 dereferenceable(4) %__args, ptr noundef nonnull align 8 dereferenceable(32) %__args1, ptr noundef nonnull align 8 dereferenceable(32) %__args3) #2 comdat align 2 {
entry:
  %this.addr = alloca ptr, align 8
  %__args.addr = alloca ptr, align 8
  %__args.addr2 = alloca ptr, align 8
  %__args.addr4 = alloca ptr, align 8
  %agg.tmp = alloca %"class.__gnu_cxx::__normal_iterator.41", align 8
  store ptr %this, ptr %this.addr, align 8, !tbaa !3
  store ptr %__args, ptr %__args.addr, align 8, !tbaa !3
  store ptr %__args1, ptr %__args.addr2, align 8, !tbaa !3
  store ptr %__args3, ptr %__args.addr4, align 8, !tbaa !3
  %this5 = load ptr, ptr %this.addr, align 8
  %_M_impl = getelementptr inbounds nuw %"struct.std::_Vector_base", ptr %this5, i32 0, i32 0
  %_M_finish = getelementptr inbounds nuw %"struct.std::_Vector_base<QuantLib::PricingError, std::allocator<QuantLib::PricingError>>::_Vector_impl_data", ptr %_M_impl, i32 0, i32 1
  %0 = load ptr, ptr %_M_finish, align 8, !tbaa !14
  %_M_impl6 = getelementptr inbounds nuw %"struct.std::_Vector_base", ptr %this5, i32 0, i32 0
  %_M_end_of_storage = getelementptr inbounds nuw %"struct.std::_Vector_base<QuantLib::PricingError, std::allocator<QuantLib::PricingError>>::_Vector_impl_data", ptr %_M_impl6, i32 0, i32 2
  %1 = load ptr, ptr %_M_end_of_storage, align 8, !tbaa !16
  %cmp = icmp ne ptr %0, %1
  br i1 %cmp, label %if.then, label %if.else

if.then:                                          ; preds = %entry
  %_M_impl7 = getelementptr inbounds nuw %"struct.std::_Vector_base", ptr %this5, i32 0, i32 0
  %_M_impl8 = getelementptr inbounds nuw %"struct.std::_Vector_base", ptr %this5, i32 0, i32 0
  %_M_finish9 = getelementptr inbounds nuw %"struct.std::_Vector_base<QuantLib::PricingError, std::allocator<QuantLib::PricingError>>::_Vector_impl_data", ptr %_M_impl8, i32 0, i32 1
  %2 = load ptr, ptr %_M_finish9, align 8, !tbaa !14
  %3 = load ptr, ptr %__args.addr, align 8, !tbaa !3
  %4 = load ptr, ptr %__args.addr2, align 8, !tbaa !3
  %5 = load ptr, ptr %__args.addr4, align 8, !tbaa !3
  call void @_ZNSt16allocator_traitsISaIN8QuantLib12PricingErrorEEE9constructIS1_JRNS1_5LevelERKNSt7__cxx1112basic_stringIcSt11char_traitsIcESaIcEEESE_EEEvRS2_PT_DpOT0_(ptr noundef nonnull align 1 dereferenceable(1) %_M_impl7, ptr noundef %2, ptr noundef nonnull align 4 dereferenceable(4) %3, ptr noundef nonnull align 8 dereferenceable(32) %4, ptr noundef nonnull align 8 dereferenceable(32) %5)
  %_M_impl10 = getelementptr inbounds nuw %"struct.std::_Vector_base", ptr %this5, i32 0, i32 0
  %_M_finish11 = getelementptr inbounds nuw %"struct.std::_Vector_base<QuantLib::PricingError, std::allocator<QuantLib::PricingError>>::_Vector_impl_data", ptr %_M_impl10, i32 0, i32 1
  %6 = load ptr, ptr %_M_finish11, align 8, !tbaa !14
  %incdec.ptr = getelementptr inbounds nuw %"struct.QuantLib::PricingError", ptr %6, i32 1
  store ptr %incdec.ptr, ptr %_M_finish11, align 8, !tbaa !14
  br label %if.end

if.else:                                          ; preds = %entry
  %call = call ptr @_ZNSt6vectorIN8QuantLib12PricingErrorESaIS1_EE3endEv(ptr noundef nonnull align 8 dereferenceable(24) %this5) #15
  %coerce.dive = getelementptr inbounds nuw %"class.__gnu_cxx::__normal_iterator.41", ptr %agg.tmp, i32 0, i32 0
  store ptr %call, ptr %coerce.dive, align 8
  %7 = load ptr, ptr %__args.addr, align 8, !tbaa !3
  %8 = load ptr, ptr %__args.addr2, align 8, !tbaa !3
  %9 = load ptr, ptr %__args.addr4, align 8, !tbaa !3
  %coerce.dive12 = getelementptr inbounds nuw %"class.__gnu_cxx::__normal_iterator.41", ptr %agg.tmp, i32 0, i32 0
  %10 = load ptr, ptr %coerce.dive12, align 8
  call void @_ZNSt6vectorIN8QuantLib12PricingErrorESaIS1_EE17_M_realloc_insertIJRNS1_5LevelERKNSt7__cxx1112basic_stringIcSt11char_traitsIcESaIcEEESE_EEEvN9__gnu_cxx17__normal_iteratorIPS1_S3_EEDpOT_(ptr noundef nonnull align 8 dereferenceable(24) %this5, ptr %10, ptr noundef nonnull align 4 dereferenceable(4) %7, ptr noundef nonnull align 8 dereferenceable(32) %8, ptr noundef nonnull align 8 dereferenceable(32) %9)
  br label %if.end

if.end:                                           ; preds = %if.else, %if.then
  %call13 = call noundef nonnull align 8 dereferenceable(104) ptr @_ZNSt6vectorIN8QuantLib12PricingErrorESaIS1_EE4backEv(ptr noundef nonnull align 8 dereferenceable(24) %this5) #15
  ret ptr %call13
}

; Function Attrs: mustprogress uwtable
define void @_ZNK8QuantLib9Commodity15addPricingErrorENS_12PricingError5LevelERKNSt7__cxx1112basic_stringIcSt11char_traitsIcESaIcEEESA_(ptr noundef nonnull align 8 dereferenceable(192) %this, i32 noundef %errorLevel, ptr noundef nonnull align 8 dereferenceable(32) %error, ptr noundef nonnull align 8 dereferenceable(32) %detail) #2 align 2 {
entry:
  %this.addr = alloca ptr, align 8
  %errorLevel.addr = alloca i32, align 4
  %error.addr = alloca ptr, align 8
  %detail.addr = alloca ptr, align 8
  store ptr %this, ptr %this.addr, align 8, !tbaa !3
  store i32 %errorLevel, ptr %errorLevel.addr, align 4, !tbaa !12
  store ptr %error, ptr %error.addr, align 8, !tbaa !3
  store ptr %detail, ptr %detail.addr, align 8, !tbaa !3
  %this1 = load ptr, ptr %this.addr, align 8
  %pricingErrors_ = getelementptr inbounds nuw %"class.QuantLib::Commodity", ptr %this1, i32 0, i32 2
  %0 = load ptr, ptr %error.addr, align 8, !tbaa !3
  %1 = load ptr, ptr %detail.addr, align 8, !tbaa !3
  %call = call noundef nonnull align 8 dereferenceable(104) ptr @_ZNSt6vectorIN8QuantLib12PricingErrorESaIS1_EE12emplace_backIJRNS1_5LevelERKNSt7__cxx1112basic_stringIcSt11char_traitsIcESaIcEEESE_EEERS1_DpOT_(ptr noundef nonnull align 8 dereferenceable(24) %pricingErrors_, ptr noundef nonnull align 4 dereferenceable(4) %errorLevel.addr, ptr noundef nonnull align 8 dereferenceable(32) %0, ptr noundef nonnull align 8 dereferenceable(32) %1)
  ret void
}