; Function Attrs: mustprogress uwtable
define void @_ZNK8QuantLib9Commodity15addPricingErrorENS_12PricingError5LevelERKNSt7__cxx1112basic_stringIcSt11char_traitsIcESaIcEEESA_(ptr noundef nonnull align 8 dereferenceable(192) %this, i32 noundef %errorLevel, ptr noundef nonnull align 8 dereferenceable(32) %error, ptr noundef nonnull align 8 dereferenceable(32) %detail) local_unnamed_addr #3 align 2 {
entry:
  %errorLevel.addr = alloca i32, align 4
  store i32 %errorLevel, ptr %errorLevel.addr, align 4, !tbaa !21
  %pricingErrors_ = getelementptr inbounds nuw i8, ptr %this, i64 120
  %_M_finish.i = getelementptr inbounds nuw i8, ptr %this, i64 128
  %0 = load ptr, ptr %_M_finish.i, align 8, !tbaa !23
  %_M_end_of_storage.i = getelementptr inbounds nuw i8, ptr %this, i64 136
  %1 = load ptr, ptr %_M_end_of_storage.i, align 8, !tbaa !24
  %cmp.not.i = icmp eq ptr %0, %1
  br i1 %cmp.not.i, label %if.else.i, label %if.then.i

if.then.i:                                        ; preds = %entry
  call void @_ZNSt15__new_allocatorIN8QuantLib12PricingErrorEE9constructIS1_JRNS1_5LevelERKNSt7__cxx1112basic_stringIcSt11char_traitsIcESaIcEEESD_EEEvPT_DpOT0_(ptr noundef nonnull align 1 dereferenceable(1) %pricingErrors_, ptr noundef %0, ptr noundef nonnull align 4 dereferenceable(4) %errorLevel.addr, ptr noundef nonnull align 8 dereferenceable(32) %error, ptr noundef nonnull align 8 dereferenceable(32) %detail)
  %2 = load ptr, ptr %_M_finish.i, align 8, !tbaa !26
  %incdec.ptr.i = getelementptr inbounds nuw i8, ptr %2, i64 104
  store ptr %incdec.ptr.i, ptr %_M_finish.i, align 8, !tbaa !26
  br label %_ZNSt6vectorIN8QuantLib12PricingErrorESaIS1_EE12emplace_backIJRNS1_5LevelERKNSt7__cxx1112basic_stringIcSt11char_traitsIcESaIcEEESE_EEERS1_DpOT_.exit

if.else.i:                                        ; preds = %entry
  call void @_ZNSt6vectorIN8QuantLib12PricingErrorESaIS1_EE17_M_realloc_insertIJRNS1_5LevelERKNSt7__cxx1112basic_stringIcSt11char_traitsIcESaIcEEESE_EEEvN9__gnu_cxx17__normal_iteratorIPS1_S3_EEDpOT_(ptr noundef nonnull align 8 dereferenceable(24) %pricingErrors_, ptr %0, ptr noundef nonnull align 4 dereferenceable(4) %errorLevel.addr, ptr noundef nonnull align 8 dereferenceable(32) %error, ptr noundef nonnull align 8 dereferenceable(32) %detail)
  br label %_ZNSt6vectorIN8QuantLib12PricingErrorESaIS1_EE12emplace_backIJRNS1_5LevelERKNSt7__cxx1112basic_stringIcSt11char_traitsIcESaIcEEESE_EEERS1_DpOT_.exit

_ZNSt6vectorIN8QuantLib12PricingErrorESaIS1_EE12emplace_backIJRNS1_5LevelERKNSt7__cxx1112basic_stringIcSt11char_traitsIcESaIcEEESE_EEERS1_DpOT_.exit: ; preds = %if.then.i, %if.else.i
  ret void
}